target datalayout = "e-m:e-p270:32:32-p271:32:32-p272:64:64-i64:64-i128:128-f80:128-n8:16:32:64-S128"
target triple = "x86_64-pc-linux-gnu"

%"class.clang::ParentMapContext" = type { ptr, i32, %"class.std::unique_ptr" }
%"class.std::unique_ptr" = type { %"struct.std::__uniq_ptr_data" }
%"struct.std::__uniq_ptr_data" = type { %"class.std::__uniq_ptr_impl" }
%"class.std::__uniq_ptr_impl" = type { %"class.std::tuple" }
%"class.std::tuple" = type { %"struct.std::_Tuple_impl" }
%"struct.std::_Tuple_impl" = type { %"struct.std::_Head_base.1" }
%"struct.std::_Head_base.1" = type { ptr }
%"class.clang::DynTypedNode" = type { %"class.clang::ASTNodeKind", [4 x i8], %"struct.llvm::AlignedCharArrayUnion" }
%"class.clang::ASTNodeKind" = type { i32 }
%"struct.llvm::AlignedCharArrayUnion" = type { [32 x i8] }

; Function Attrs: mustprogress nounwind uwtable
define linkonce_odr hidden noundef ptr @_ZN4llvm16cast_convert_valIN5clang4ExprEPKNS1_4StmtES5_E4doitES5_(ptr noundef %0) #0 comdat align 2 {
  %2 = alloca ptr, align 8
  store ptr %0, ptr %2, align 8
  %3 = load ptr, ptr %2, align 8
  ret ptr %3
}

; Function Attrs: mustprogress nounwind uwtable
define linkonce_odr hidden noundef ptr @_ZN4llvm8CastInfoIN5clang4ExprEPKNS1_4StmtEvE6doCastERKS5_(ptr noundef nonnull align 8 dereferenceable(8) %0) #0 comdat align 2 {
  %2 = alloca ptr, align 8
  store ptr %0, ptr %2, align 8
  %3 = load ptr, ptr %2, align 8
  %4 = load ptr, ptr %3, align 8
  %5 = call noundef ptr @_ZN4llvm16cast_convert_valIN5clang4ExprEPKNS1_4StmtES5_E4doitES5_(ptr noundef %4)
  ret ptr %5
}

; Function Attrs: mustprogress nounwind uwtable
define linkonce_odr hidden void @_ZN5clang11ASTNodeKindC2Ev(ptr noundef nonnull align 4 dereferenceable(4) %0) unnamed_addr #0 comdat align 2 {
  %2 = alloca ptr, align 8
  store ptr %0, ptr %2, align 8
  %3 = load ptr, ptr %2, align 8
  %4 = getelementptr inbounds nuw %"class.clang::ASTNodeKind", ptr %3, i32 0, i32 0
  store i32 0, ptr %4, align 4
  ret void
}

; Function Attrs: mustprogress nounwind uwtable
define linkonce_odr hidden noundef ptr @_ZN4llvm4castIN5clang4ExprEKNS1_4StmtEEEDcPT0_(ptr noundef %0) #0 comdat {
  %2 = alloca ptr, align 8
  store ptr %0, ptr %2, align 8
  %3 = call noundef ptr @_ZN4llvm8CastInfoIN5clang4ExprEPKNS1_4StmtEvE6doCastERKS5_(ptr noundef nonnull align 8 dereferenceable(8) %2)
  ret ptr %3
}

; Function Attrs: mustprogress nounwind uwtable
define linkonce_odr hidden void @_ZN5clang11ASTNodeKindC2ENS0_10NodeKindIdE(ptr noundef nonnull align 4 dereferenceable(4) %0, i32 noundef %1) unnamed_addr #0 comdat align 2 {
  %3 = alloca ptr, align 8
  %4 = alloca i32, align 4
  store ptr %0, ptr %3, align 8
  store i32 %1, ptr %4, align 4
  %5 = load ptr, ptr %3, align 8
  %6 = getelementptr inbounds nuw %"class.clang::ASTNodeKind", ptr %5, i32 0, i32 0
  %7 = load i32, ptr %4, align 4
  store i32 %7, ptr %6, align 4
  ret void
}

; Function Attrs: mustprogress nounwind uwtable
define linkonce_odr hidden void @_ZN5clang12DynTypedNodeC2Ev(ptr noundef nonnull align 8 dereferenceable(40) %0) unnamed_addr #0 comdat align 2 {
  %2 = alloca ptr, align 8
  store ptr %0, ptr %2, align 8
  %3 = load ptr, ptr %2, align 8
  %4 = getelementptr inbounds nuw %"class.clang::DynTypedNode", ptr %3, i32 0, i32 0
  call void @_ZN5clang11ASTNodeKindC2Ev(ptr noundef nonnull align 4 dereferenceable(4) %4)
  ret void
}

; Function Attrs: mustprogress nounwind uwtable
define linkonce_odr hidden noundef nonnull align 8 dereferenceable(16) ptr @_ZN5clang12DynTypedNode19DynCastPtrConverterINS_4ExprENS_4StmtEE12getUncheckedENS_11ASTNodeKindEPKv(i32 %0, ptr noundef %1) #0 comdat align 2 {
  %3 = alloca %"class.clang::ASTNodeKind", align 4
  %4 = alloca ptr, align 8
  %5 = getelementptr inbounds nuw %"class.clang::ASTNodeKind", ptr %3, i32 0, i32 0
  store i32 %0, ptr %5, align 4
  store ptr %1, ptr %4, align 8
  %6 = load ptr, ptr %4, align 8
  %7 = load ptr, ptr %6, align 8
  %8 = call noundef ptr @_ZN4llvm4castIN5clang4ExprEKNS1_4StmtEEEDcPT0_(ptr noundef %7)
  ret ptr %8
}

; Function Attrs: mustprogress nounwind uwtable
define linkonce_odr hidden i32 @_ZN5clang11ASTNodeKind15getFromNodeKindINS_4ExprEEES0_v() #0 comdat align 2 {
  %1 = alloca %"class.clang::ASTNodeKind", align 4
  call void @_ZN5clang11ASTNodeKindC2ENS0_10NodeKindIdE(ptr noundef nonnull align 4 dereferenceable(4) %1, i32 noundef 179)
  %2 = getelementptr inbounds nuw %"class.clang::ASTNodeKind", ptr %1, i32 0, i32 0
  %3 = load i32, ptr %2, align 4
  ret i32 %3
}

; Function Attrs: mustprogress nounwind uwtable
define linkonce_odr hidden void @_ZN5clang12DynTypedNode19DynCastPtrConverterINS_4ExprENS_4StmtEE6createERKS3_(ptr dead_on_unwind noalias writable sret(%"class.clang::DynTypedNode") align 8 %0, ptr noundef nonnull align 8 dereferenceable(8) %1) #0 comdat align 2 {
  %3 = alloca ptr, align 8
  %4 = alloca %"class.clang::ASTNodeKind", align 4
  store ptr %1, ptr %3, align 8
  call void @_ZN5clang12DynTypedNodeC2Ev(ptr noundef nonnull align 8 dereferenceable(40) %0)
  %5 = load ptr, ptr %3, align 8
  %6 = call i32 @_ZN5clang11ASTNodeKind11getFromNodeERKNS_4StmtE(ptr noundef nonnull align 8 dereferenceable(8) %5)
  %7 = getelementptr inbounds nuw %"class.clang::ASTNodeKind", ptr %4, i32 0, i32 0
  store i32 %6, ptr %7, align 4
  %8 = getelementptr inbounds nuw %"class.clang::DynTypedNode", ptr %0, i32 0, i32 0
  call void @llvm.memcpy.p0.p0.i64(ptr align 8 %8, ptr align 4 %4, i64 4, i1 false)
  %9 = getelementptr inbounds nuw %"class.clang::DynTypedNode", ptr %0, i32 0, i32 2
  %10 = load ptr, ptr %3, align 8
  store ptr %10, ptr %9, align 8
  ret void
}

; Function Attrs: mustprogress nounwind uwtable
define dso_local noundef ptr @_ZNK5clang16ParentMapContext15traverseIgnoredEPNS_4ExprE(ptr noundef nonnull align 8 dereferenceable(24) %0, ptr noundef %1) #0 align 2 {
  %3 = alloca ptr, align 8
  %4 = alloca ptr, align 8
  %5 = alloca ptr, align 8
  store ptr %0, ptr %4, align 8
  store ptr %1, ptr %5, align 8
  %6 = load ptr, ptr %4, align 8
  %7 = load ptr, ptr %5, align 8
  %8 = icmp ne ptr %7, null
  br i1 %8, label %10, label %9

9:                                                ; preds = %2
  store ptr null, ptr %3, align 8
  br label %19

10:                                               ; preds = %2
  %11 = getelementptr inbounds nuw %"class.clang::ParentMapContext", ptr %6, i32 0, i32 1
  %12 = load i32, ptr %11, align 8
  switch i32 %12, label %18 [
    i32 0, label %13
    i32 1, label %15
  ]

13:                                               ; preds = %10
  %14 = load ptr, ptr %5, align 8
  store ptr %14, ptr %3, align 8
  br label %19

15:                                               ; preds = %10
  %16 = load ptr, ptr %5, align 8
  %17 = call noundef ptr @_ZN5clang4Expr27IgnoreUnlessSpelledInSourceEv(ptr noundef nonnull align 8 dereferenceable(16) %16)
  store ptr %17, ptr %3, align 8
  br label %19

18:                                               ; preds = %10
  unreachable

19:                                               ; preds = %15, %13, %9
  %20 = load ptr, ptr %3, align 8
  ret ptr %20
}

; Function Attrs: mustprogress nounwind uwtable
define linkonce_odr hidden noundef ptr @_ZN5clang12DynTypedNode19DynCastPtrConverterINS_4ExprENS_4StmtEE3getENS_11ASTNodeKindEPKv(i32 %0, ptr noundef %1) #0 comdat align 2 {
  %3 = alloca ptr, align 8
  %4 = alloca %"class.clang::ASTNodeKind", align 4
  %5 = alloca ptr, align 8
  %6 = alloca %"class.clang::ASTNodeKind", align 4
  %7 = alloca %"class.clang::ASTNodeKind", align 4
  %8 = alloca %"class.clang::ASTNodeKind", align 4
  %9 = getelementptr inbounds nuw %"class.clang::ASTNodeKind", ptr %4, i32 0, i32 0
  store i32 %0, ptr %9, align 4
  store ptr %1, ptr %5, align 8
  %10 = call i32 @_ZN5clang11ASTNodeKind15getFromNodeKindINS_4ExprEEES0_v()
  %11 = getelementptr inbounds nuw %"class.clang::ASTNodeKind", ptr %6, i32 0, i32 0
  store i32 %10, ptr %11, align 4
  call void @llvm.memcpy.p0.p0.i64(ptr align 4 %7, ptr align 4 %4, i64 4, i1 false)
  %12 = getelementptr inbounds nuw %"class.clang::ASTNodeKind", ptr %7, i32 0, i32 0
  %13 = load i32, ptr %12, align 4
  %14 = call noundef zeroext i1 @_ZNK5clang11ASTNodeKind8isBaseOfES0_(ptr noundef nonnull align 4 dereferenceable(4) %6, i32 %13)
  br i1 %14, label %15, label %20

15:                                               ; preds = %2
  call void @llvm.memcpy.p0.p0.i64(ptr align 4 %8, ptr align 4 %4, i64 4, i1 false)
  %16 = load ptr, ptr %5, align 8
  %17 = getelementptr inbounds nuw %"class.clang::ASTNodeKind", ptr %8, i32 0, i32 0
  %18 = load i32, ptr %17, align 4
  %19 = call noundef nonnull align 8 dereferenceable(16) ptr @_ZN5clang12DynTypedNode19DynCastPtrConverterINS_4ExprENS_4StmtEE12getUncheckedENS_11ASTNodeKindEPKv(i32 %18, ptr noundef %16)
  store ptr %19, ptr %3, align 8
  br label %21

20:                                               ; preds = %2
  store ptr null, ptr %3, align 8
  br label %21

21:                                               ; preds = %20, %15
  %22 = load ptr, ptr %3, align 8
  ret ptr %22
}

; Function Attrs: mustprogress nounwind uwtable
define linkonce_odr hidden void @_ZN5clang12DynTypedNode6createINS_4ExprEEES0_RKT_(ptr dead_on_unwind noalias writable sret(%"class.clang::DynTypedNode") align 8 %0, ptr noundef nonnull align 8 dereferenceable(16) %1) #0 comdat align 2 {
  %3 = alloca ptr, align 8
  store ptr %1, ptr %3, align 8
  %4 = load ptr, ptr %3, align 8
  call void @_ZN5clang12DynTypedNode19DynCastPtrConverterINS_4ExprENS_4StmtEE6createERKS3_(ptr dead_on_unwind writable sret(%"class.clang::DynTypedNode") align 8 %0, ptr noundef nonnull align 8 dereferenceable(8) %4)
  ret void
}

; Function Attrs: mustprogress nounwind uwtable
define dso_local noundef ptr @_ZNK5clang16ParentMapContext15traverseIgnoredEPKNS_4ExprE(ptr noundef nonnull align 8 dereferenceable(24) %0, ptr noundef %1) #0 align 2 {
  %3 = alloca ptr, align 8
  %4 = alloca ptr, align 8
  store ptr %0, ptr %3, align 8
  store ptr %1, ptr %4, align 8
  %5 = load ptr, ptr %3, align 8
  %6 = load ptr, ptr %4, align 8
  %7 = call noundef ptr @_ZNK5clang16ParentMapContext15traverseIgnoredEPNS_4ExprE(ptr noundef nonnull align 8 dereferenceable(24) %5, ptr noundef %6)
  ret ptr %7
}

; Function Attrs: mustprogress nounwind uwtable
define linkonce_odr hidden noundef ptr @_ZNK5clang12DynTypedNode3getINS_4ExprEEEPKT_v(ptr noundef nonnull align 8 dereferenceable(40) %0) #0 comdat align 2 {
  %2 = alloca ptr, align 8
  %3 = alloca %"class.clang::ASTNodeKind", align 4
  store ptr %0, ptr %2, align 8
  %4 = load ptr, ptr %2, align 8
  %5 = getelementptr inbounds nuw %"class.clang::DynTypedNode", ptr %4, i32 0, i32 0
  call void @llvm.memcpy.p0.p0.i64(ptr align 4 %3, ptr align 8 %5, i64 4, i1 false)
  %6 = getelementptr inbounds nuw %"class.clang::DynTypedNode", ptr %4, i32 0, i32 2
  %7 = getelementptr inbounds nuw %"class.clang::ASTNodeKind", ptr %3, i32 0, i32 0
  %8 = load i32, ptr %7, align 4
  %9 = call noundef ptr @_ZN5clang12DynTypedNode19DynCastPtrConverterINS_4ExprENS_4StmtEE3getENS_11ASTNodeKindEPKv(i32 %8, ptr noundef %6)
  ret ptr %9
}

; Function Attrs: mustprogress nounwind uwtable
define dso_local void @_ZNK5clang16ParentMapContext15traverseIgnoredERKNS_12DynTypedNodeE(ptr dead_on_unwind noalias writable sret(%"class.clang::DynTypedNode") align 8 %0, ptr noundef nonnull align 8 dereferenceable(24) %1, ptr noundef nonnull align 8 dereferenceable(40) %2) #0 align 2 {
  %4 = alloca ptr, align 8
  %5 = alloca ptr, align 8
  %6 = alloca ptr, align 8
  store ptr %1, ptr %4, align 8
  store ptr %2, ptr %5, align 8
  %7 = load ptr, ptr %4, align 8
  %8 = load ptr, ptr %5, align 8
  %9 = call noundef ptr @_ZNK5clang12DynTypedNode3getINS_4ExprEEEPKT_v(ptr noundef nonnull align 8 dereferenceable(40) %8)
  store ptr %9, ptr %6, align 8
  %10 = load ptr, ptr %6, align 8
  %11 = icmp ne ptr %10, null
  br i1 %11, label %12, label %15

12:                                               ; preds = %3
  %13 = load ptr, ptr %6, align 8
  %14 = call noundef ptr @_ZNK5clang16ParentMapContext15traverseIgnoredEPKNS_4ExprE(ptr noundef nonnull align 8 dereferenceable(24) %7, ptr noundef %13)
  call void @_ZN5clang12DynTypedNode6createINS_4ExprEEES0_RKT_(ptr dead_on_unwind writable sret(%"class.clang::DynTypedNode") align 8 %0, ptr noundef nonnull align 8 dereferenceable(16) %14)
  br label %17

15:                                               ; preds = %3
  %16 = load ptr, ptr %5, align 8
  call void @llvm.memcpy.p0.p0.i64(ptr align 8 %0, ptr align 8 %16, i64 40, i1 false)
  br label %17

17:                                               ; preds = %15, %12
  ret void
}