; Function Attrs: mustprogress nounwind uwtable
define dso_local void @_ZNK5clang16ParentMapContext15traverseIgnoredERKNS_12DynTypedNodeE(ptr dead_on_unwind noalias nocapture writable writeonly sret(%"class.clang::DynTypedNode") align 8 %0, ptr nocapture noundef nonnull readonly align 8 dereferenceable(24) %1, ptr nocapture noundef nonnull readonly align 8 dereferenceable(40) %2) local_unnamed_addr #1 align 2 {
  %4 = alloca %"class.clang::ASTNodeKind", align 4
  %.sroa.0.0.copyload.i = load i32, ptr %2, align 8
  %5 = getelementptr inbounds nuw i8, ptr %2, i64 8
  call void @llvm.lifetime.start.p0(i64 4, ptr nonnull %4)
  store i32 179, ptr %4, align 4
  %6 = call noundef zeroext i1 @_ZNK5clang11ASTNodeKind8isBaseOfES0_(ptr noundef nonnull align 4 dereferenceable(4) %4, i32 %.sroa.0.0.copyload.i) #16
  %7 = load ptr, ptr %5, align 8
  call void @llvm.lifetime.end.p0(i64 4, ptr nonnull %4)
  %.not6 = icmp ne ptr %7, null
  %.not.not = select i1 %6, i1 %.not6, i1 false
  br i1 %.not.not, label %8, label %15

8:                                                ; preds = %3
  %9 = getelementptr inbounds nuw i8, ptr %1, i64 8
  %10 = load i32, ptr %9, align 8
  %switch.i.i = icmp eq i32 %10, 0
  br i1 %switch.i.i, label %_ZNK5clang16ParentMapContext15traverseIgnoredEPKNS_4ExprE.exit, label %11

11:                                               ; preds = %8
  %12 = call noundef ptr @_ZN5clang4Expr27IgnoreUnlessSpelledInSourceEv(ptr noundef nonnull align 8 dereferenceable(16) %7) #16
  br label %_ZNK5clang16ParentMapContext15traverseIgnoredEPKNS_4ExprE.exit

_ZNK5clang16ParentMapContext15traverseIgnoredEPKNS_4ExprE.exit: ; preds = %8, %11
  %.0.i.i5 = phi ptr [ %12, %11 ], [ %7, %8 ]
  call void @llvm.experimental.noalias.scope.decl(metadata !4)
  call void @llvm.experimental.noalias.scope.decl(metadata !7)
  %13 = call i32 @_ZN5clang11ASTNodeKind11getFromNodeERKNS_4StmtE(ptr noundef nonnull align 8 dereferenceable(8) %.0.i.i5) #16, !noalias !10
  store i32 %13, ptr %0, align 8, !alias.scope !10
  %14 = getelementptr inbounds nuw i8, ptr %0, i64 8
  store ptr %.0.i.i5, ptr %14, align 8, !alias.scope !10
  br label %16

15:                                               ; preds = %3
  call void @llvm.memcpy.p0.p0.i64(ptr noundef nonnull align 8 dereferenceable(40) %0, ptr noundef nonnull align 8 dereferenceable(40) %2, i64 40, i1 false)
  br label %16

16:                                               ; preds = %15, %_ZNK5clang16ParentMapContext15traverseIgnoredEPKNS_4ExprE.exit
  ret void
}